; Function Attrs: mustprogress uwtable
define hidden void @_ZN4lean13trace_pp_exprB5cxx11ERKNS_4exprE(ptr dead_on_unwind noalias writable sret(%"class.std::__cxx11::basic_string") align 8 %0, ptr noundef nonnull readonly align 8 captures(none) dereferenceable(8) %1) local_unnamed_addr #0 personality ptr @__gxx_personality_v0 {
  %3 = alloca %"class.lean::local_ctx", align 8
  %4 = tail call align 8 ptr @llvm.threadlocal.address.p0(ptr align 8 @_ZN4leanL5g_envE)
  %5 = load ptr, ptr %4, align 8, !tbaa !73
  %6 = tail call align 8 ptr @llvm.threadlocal.address.p0(ptr align 8 @_ZN4leanL6g_optsE)
  %7 = load ptr, ptr %6, align 8, !tbaa !64
  call void @llvm.lifetime.start.p0(i64 8, ptr nonnull %3) #20, !noalias !119
  call void @_ZN4lean9local_ctxC1Ev(ptr noundef nonnull align 8 dereferenceable(8) %3), !noalias !119
  invoke void @_ZN4lean7pp_exprB5cxx11ERKNS_16elab_environmentERKNS_7optionsERKNS_9local_ctxERKNS_4exprE(ptr dead_on_unwind writable sret(%"class.std::__cxx11::basic_string") align 8 %0, ptr noundef nonnull readonly align 8 dereferenceable(8) %5, ptr noundef nonnull readonly align 8 dereferenceable(8) %7, ptr noundef nonnull align 8 dereferenceable(8) %3, ptr noundef nonnull readonly align 8 dereferenceable(8) %1)
          to label %8 unwind label %22

8:                                                ; preds = %2
  %9 = load ptr, ptr %3, align 8, !tbaa !3, !noalias !119
  %10 = ptrtoint ptr %9 to i64
  %11 = and i64 %10, 1
  %.not.i.i.i = icmp eq i64 %11, 0
  br i1 %.not.i.i.i, label %12, label %_ZN4lean7pp_exprB5cxx11ERKNS_16elab_environmentERKNS_7optionsERKNS_4exprE.exit

12:                                               ; preds = %8
  %13 = load i32, ptr %9, align 4, !tbaa !8
  %14 = icmp sgt i32 %13, 1
  br i1 %14, label %15, label %17, !prof !11

15:                                               ; preds = %12
  %16 = add nsw i32 %13, -1
  store i32 %16, ptr %9, align 4, !tbaa !8
  br label %_ZN4lean7pp_exprB5cxx11ERKNS_16elab_environmentERKNS_7optionsERKNS_4exprE.exit

17:                                               ; preds = %12
  %.not.i.i.i.i = icmp eq i32 %13, 0
  br i1 %.not.i.i.i.i, label %_ZN4lean7pp_exprB5cxx11ERKNS_16elab_environmentERKNS_7optionsERKNS_4exprE.exit, label %18

18:                                               ; preds = %17
  invoke void @lean_dec_ref_cold(ptr noundef nonnull %9)
          to label %_ZN4lean7pp_exprB5cxx11ERKNS_16elab_environmentERKNS_7optionsERKNS_4exprE.exit unwind label %19

19:                                               ; preds = %18
  %20 = landingpad { ptr, i32 }
          catch ptr null
  %21 = extractvalue { ptr, i32 } %20, 0
  call void @__clang_call_terminate(ptr %21) #21
  unreachable

22:                                               ; preds = %2
  %23 = landingpad { ptr, i32 }
          cleanup
  call void @_ZN4lean10object_refD2Ev(ptr noundef nonnull align 8 dereferenceable(8) %3) #20
  call void @llvm.lifetime.end.p0(i64 8, ptr nonnull %3) #20, !noalias !119
  resume { ptr, i32 } %23

_ZN4lean7pp_exprB5cxx11ERKNS_16elab_environmentERKNS_7optionsERKNS_4exprE.exit: ; preds = %8, %15, %17, %18
  call void @llvm.lifetime.end.p0(i64 8, ptr nonnull %3) #20, !noalias !119
  ret void
}